; Function Attrs: mustprogress nofree norecurse nosync nounwind memory(readwrite, inaccessiblemem: none) uwtable
define hidden noundef i32 @_ZNK4ncnn5Swish15forward_inplaceERNS_3MatERKNS_6OptionE(ptr nocapture nonnull readnone align 8 %0, ptr nocapture noundef nonnull readonly align 8 dereferenceable(72) %1, ptr nocapture nonnull readnone align 8 %2) unnamed_addr #2 align 2 personality ptr @__gxx_personality_v0 {
  %4 = getelementptr inbounds nuw i8, ptr %1, i64 44
  %5 = load i32, ptr %4, align 4
  %6 = getelementptr inbounds nuw i8, ptr %1, i64 48
  %7 = load i32, ptr %6, align 8
  %8 = getelementptr inbounds nuw i8, ptr %1, i64 52
  %9 = load i32, ptr %8, align 4
  %10 = getelementptr inbounds nuw i8, ptr %1, i64 56
  %11 = load i32, ptr %10, align 8
  %12 = mul i32 %7, %5
  %13 = mul i32 %12, %9
  %14 = icmp sgt i32 %11, 0
  br i1 %14, label %.lr.ph64, label %._crit_edge65

.lr.ph64:                                         ; preds = %3
  %15 = getelementptr inbounds nuw i8, ptr %1, i64 64
  %16 = getelementptr inbounds nuw i8, ptr %1, i64 16
  %17 = icmp sgt i32 %13, 0
  br i1 %17, label %.lr.ph.us.preheader, label %._crit_edge65

.lr.ph.us.preheader:                              ; preds = %.lr.ph64
  %wide.trip.count71 = zext nneg i32 %11 to i64
  %wide.trip.count = zext nneg i32 %13 to i64
  br label %.lr.ph.us

.lr.ph.us:                                        ; preds = %.lr.ph.us.preheader, %._crit_edge.us
  %indvars.iv68 = phi i64 [ 0, %.lr.ph.us.preheader ], [ %indvars.iv.next69, %._crit_edge.us ]
  %18 = load ptr, ptr %1, align 8
  %19 = load i64, ptr %15, align 8
  %20 = mul i64 %19, %indvars.iv68
  %21 = load i64, ptr %16, align 8
  %22 = mul i64 %20, %21
  %23 = getelementptr inbounds i8, ptr %18, i64 %22
  br label %24

24:                                               ; preds = %.lr.ph.us, %24
  %indvars.iv = phi i64 [ 0, %.lr.ph.us ], [ %indvars.iv.next, %24 ]
  %25 = getelementptr inbounds float, ptr %23, i64 %indvars.iv
  %26 = load float, ptr %25, align 4
  %27 = fneg fast float %26
  %28 = tail call fast float @llvm.exp.f32(float %27)
  %29 = fadd fast float %28, 1.000000e+00
  %30 = fdiv fast float %26, %29
  store float %30, ptr %25, align 4
  %indvars.iv.next = add nuw nsw i64 %indvars.iv, 1
  %exitcond.not = icmp eq i64 %indvars.iv.next, %wide.trip.count
  br i1 %exitcond.not, label %._crit_edge.us, label %24, !llvm.loop !4

._crit_edge.us:                                   ; preds = %24
  %indvars.iv.next69 = add nuw nsw i64 %indvars.iv68, 1
  %exitcond72.not = icmp eq i64 %indvars.iv.next69, %wide.trip.count71
  br i1 %exitcond72.not, label %._crit_edge65, label %.lr.ph.us, !llvm.loop !6

._crit_edge65:                                    ; preds = %._crit_edge.us, %.lr.ph64, %3
  ret i32 0
}